Certificate:
    Data:
        Version: 3 (0x2)
        Serial Number: 4666 (0x123a)
        Signature Algorithm: sha512WithRSAEncryption
        Issuer: C=CA, ST=ON, L=Toronto, O=acme, OU=art, CN=intermediate_ca@acme.org
        Validity
            Not Before: Jan 17 09:11:35 2020 GMT
            Not After : Jan 17 09:11:35 2024 GMT
        Subject: C=CA, ST=ON, L=Toronto, O=acme, OU=art, CN=allowed_by_ca_with_intermediate@acme.org
        Subject Public Key Info:
            Public Key Algorithm: rsaEncryption
                RSA Public-Key: (2048 bit)
                Modulus:
                    00:af:a3:4a:10:1a:78:13:88:16:db:7c:57:b5:80:
                    80:f5:1a:4d:06:02:c1:02:b4:4f:5e:cd:ad:86:85:
                    54:df:67:d1:15:ce:a0:18:8e:10:f8:fc:cb:71:50:
                    16:cb:88:73:9b:8c:06:30:1f:15:4b:a8:5f:9b:8f:
                    da:32:db:38:3c:04:31:dc:0b:55:95:76:00:f0:87:
                    7a:33:3d:0a:32:26:7e:ab:63:21:df:90:14:2d:c0:
                    a3:ac:e6:7e:c1:c8:09:e9:fe:15:83:34:b7:a6:8e:
                    cc:49:6d:49:ee:0c:52:34:78:82:6b:06:5d:13:00:
                    05:24:a2:c1:d8:ad:bf:7f:7d:67:a2:18:ca:f5:6e:
                    2e:62:eb:2b:39:52:ce:71:65:dc:24:80:80:cf:a1:
                    d9:69:be:0c:c9:21:40:da:aa:13:12:aa:78:06:d7:
                    24:36:90:c2:93:ae:dd:09:f4:4d:48:26:64:37:1f:
                    f7:e3:b8:f5:1b:a6:75:fb:e7:14:59:93:63:c5:ff:
                    c8:57:fd:a3:7a:f7:9f:78:cf:a3:fb:b7:e6:65:e3:
                    27:7a:b8:ff:d9:40:cc:f8:c3:ea:9a:93:5a:cd:ad:
                    db:76:df:ce:0d:42:e9:48:02:b6:fd:c5:60:97:26:
                    74:ad:af:c6:13:b3:f4:bf:2c:28:a0:77:7c:36:76:
                    37:eb
                Exponent: 65537 (0x10001)
        X509v3 extensions:
            X509v3 CRL Distribution Points: 

                Full Name:
                  URI:file:///home/vavrtom/git/dbg/vavrtom/qpid-broker-j/test-profiles/test_resources/ssl/certificates/intermediate_ca.crl

            X509v3 Basic Constraints: 
                CA:FALSE
            X509v3 Key Usage: 
                Digital Signature, Non Repudiation, Key Encipherment
    Signature Algorithm: sha512WithRSAEncryption
         5e:38:59:f6:ff:40:46:56:c2:f7:86:d6:fc:8e:c5:b4:53:48:
         22:c4:27:09:d2:40:96:69:0c:2e:a1:61:0c:02:6f:22:03:74:
         9a:bf:35:ae:a3:d3:01:fe:f7:18:bc:84:dc:dc:4b:72:c3:21:
         2b:99:b0:36:53:44:f3:7f:08:a9:db:9d:2f:da:de:44:fb:7e:
         e8:f5:7f:1a:14:12:91:57:85:54:10:ff:17:f7:c4:2a:55:dc:
         a9:90:13:a1:ad:b3:d5:04:33:8f:54:ec:7b:1c:bb:08:dd:0b:
         ae:b7:7f:ed:50:79:42:b8:28:98:81:dc:f9:f6:0f:b3:49:23:
         26:64:ac:84:0f:3c:94:41:3f:18:35:84:28:67:69:3a:d3:70:
         e5:29:5f:49:c0:59:92:80:4d:5b:09:04:c2:e2:63:7b:13:e3:
         fb:1c:5a:ee:18:36:88:4e:7d:24:5f:d7:2e:17:e7:df:4d:a6:
         3a:1e:c8:21:14:e5:a6:7a:ea:5c:02:71:3d:84:c6:28:88:25:
         e9:83:40:d8:56:ab:65:91:b7:b7:81:48:25:f9:67:85:1d:81:
         45:0e:5a:e1:8f:80:ad:83:61:1a:21:d9:15:be:a7:ad:8c:f0:
         3e:ed:11:29:05:f0:96:99:45:42:8a:be:d6:70:88:c8:37:b9:
         60:f6:df:00
-----BEGIN CERTIFICATE-----
MIIECDCCAvCgAwIBAgICEjowDQYJKoZIhvcNAQENBQAwbDELMAkGA1UEBhMCQ0Ex
CzAJBgNVBAgMAk9OMRAwDgYDVQQHDAdUb3JvbnRvMQ0wCwYDVQQKDARhY21lMQww
CgYDVQQLDANhcnQxITAfBgNVBAMMGGludGVybWVkaWF0ZV9jYUBhY21lLm9yZzAe
Fw0yMDAxMTcwOTExMzVaFw0yNDAxMTcwOTExMzVaMHwxCzAJBgNVBAYTAkNBMQsw
CQYDVQQIDAJPTjEQMA4GA1UEBwwHVG9yb250bzENMAsGA1UECgwEYWNtZTEMMAoG
A1UECwwDYXJ0MTEwLwYDVQQDDChhbGxvd2VkX2J5X2NhX3dpdGhfaW50ZXJtZWRp
YXRlQGFjbWUub3JnMIIBIjANBgkqhkiG9w0BAQEFAAOCAQ8AMIIBCgKCAQEAr6NK
EBp4E4gW23xXtYCA9RpNBgLBArRPXs2thoVU32fRFc6gGI4Q+PzLcVAWy4hzm4wG
MB8VS6hfm4/aMts4PAQx3AtVlXYA8Id6Mz0KMiZ+q2Mh35AULcCjrOZ+wcgJ6f4V
gzS3po7MSW1J7gxSNHiCawZdEwAFJKLB2K2/f31nohjK9W4uYusrOVLOcWXcJICA
z6HZab4MySFA2qoTEqp4BtckNpDCk67dCfRNSCZkNx/347j1G6Z1++cUWZNjxf/I
V/2jevefeM+j+7fmZeMnerj/2UDM+MPqmpNaza3bdt/ODULpSAK2/cVglyZ0ra/G
E7P0vywooHd8NnY36wIDAQABo4GjMIGgMIGFBgNVHR8EfjB8MHqgeKB2hnRmaWxl
Oi8vL2hvbWUvdmF2cnRvbS9naXQvZGJnL3ZhdnJ0b20vcXBpZC1icm9rZXItai90
ZXN0LXByb2ZpbGVzL3Rlc3RfcmVzb3VyY2VzL3NzbC9jZXJ0aWZpY2F0ZXMvaW50
ZXJtZWRpYXRlX2NhLmNybDAJBgNVHRMEAjAAMAsGA1UdDwQEAwIF4DANBgkqhkiG
9w0BAQ0FAAOCAQEAXjhZ9v9ARlbC94bW/I7FtFNIIsQnCdJAlmkMLqFhDAJvIgN0
mr81rqPTAf73GLyE3NxLcsMhK5mwNlNE838IqdudL9reRPt+6PV/GhQSkVeFVBD/
F/fEKlXcqZAToa2z1QQzj1Tsexy7CN0Lrrd/7VB5QrgomIHc+fYPs0kjJmSshA88
lEE/GDWEKGdpOtNw5SlfScBZkoBNWwkEwuJjexPj+xxa7hg2iE59JF/XLhfn302m
Oh7IIRTlpnrqXAJxPYTGKIgl6YNA2FarZZG3t4FIJflnhR2BRQ5a4Y+ArYNhGiHZ
Fb6nrYzwPu0RKQXwlplFQoq+1nCIyDe5YPbfAA==
-----END CERTIFICATE-----
