Certificate:
    Data:
        Version: 3 (0x2)
        Serial Number: 4666 (0x123a)
        Signature Algorithm: sha512WithRSAEncryption
        Issuer: C=CA, ST=ON, L=Toronto, O=acme, OU=art, CN=intermediate_ca@acme.org
        Validity
            Not Before: Jan 17 12:14:01 2020 GMT
            Not After : Jan 17 12:14:01 2024 GMT
        Subject: C=CA, ST=ON, L=Toronto, O=acme, OU=art, CN=allowed_by_ca_with_intermediate@acme.org
        Subject Public Key Info:
            Public Key Algorithm: rsaEncryption
                RSA Public-Key: (2048 bit)
                Modulus:
                    00:c9:ec:61:2e:56:70:b4:b4:32:52:6b:62:c6:cd:
                    64:87:65:e1:71:3b:87:fb:eb:dd:77:98:8e:44:aa:
                    6d:df:2d:22:78:0a:9a:54:87:bf:23:28:cd:9e:64:
                    fa:2d:40:ef:e3:09:37:be:12:65:aa:3f:4e:ef:2e:
                    85:f1:19:42:00:79:51:95:a7:84:7a:9b:be:64:e3:
                    f8:96:a7:5c:7a:ec:4b:4d:89:28:b2:2c:4f:e2:77:
                    fd:26:48:84:07:63:db:e9:70:dc:aa:8e:74:05:23:
                    89:db:9d:79:20:5a:83:bd:bb:a8:1e:1e:e8:38:8a:
                    c8:2e:19:5d:47:0f:ee:0c:7a:88:d7:15:62:60:73:
                    b0:cb:a7:a0:c2:89:0a:7e:33:89:67:f3:93:3c:d2:
                    6b:90:f6:a6:6d:af:be:9d:38:2c:ae:b1:af:f0:23:
                    19:3e:2c:90:a2:ad:77:8e:d6:40:e7:65:40:54:2f:
                    5d:66:56:77:a1:71:47:13:d1:6d:d9:70:f9:14:c0:
                    b4:5d:5d:32:7f:a2:af:49:45:7b:7c:44:c8:39:53:
                    61:0d:25:c7:1e:a0:a4:7d:d0:21:60:22:7f:ec:55:
                    36:af:87:30:fc:27:c5:a1:34:2a:a7:2a:b1:a3:9d:
                    d8:18:88:d0:7e:53:49:2f:ea:6f:03:da:54:79:0c:
                    26:e3
                Exponent: 65537 (0x10001)
        X509v3 extensions:
            X509v3 CRL Distribution Points: 

                Full Name:
                  URI:http://localhost:8186/intermediate_ca.crl

            X509v3 Basic Constraints: 
                CA:FALSE
            X509v3 Key Usage: 
                Digital Signature, Non Repudiation, Key Encipherment
    Signature Algorithm: sha512WithRSAEncryption
         17:7d:7c:c2:32:03:78:c5:76:87:37:54:38:c6:1f:f1:c6:05:
         96:48:fb:f1:ad:da:41:76:7b:d0:cb:ee:7b:5d:78:9d:a6:b3:
         75:32:85:37:91:d2:58:aa:a5:27:ac:71:4c:12:01:6c:14:19:
         23:52:09:b9:13:3d:17:4d:a2:b0:56:95:38:66:a7:39:f2:b8:
         78:50:2a:1d:12:63:46:1f:5e:d4:12:4b:f2:88:72:44:d9:43:
         29:da:80:a0:14:0e:dd:d3:69:f3:ad:05:0e:bb:5a:5b:f4:aa:
         06:5a:f5:8c:7f:78:ba:d3:50:e0:68:9f:11:b0:33:3c:f9:5c:
         22:cd:70:68:ba:8c:39:92:e3:c4:88:1f:85:79:b5:1c:94:e1:
         79:c9:56:4e:2c:1e:41:e8:fd:40:0e:61:46:dc:74:4b:f0:bf:
         6d:e7:c1:34:fa:6a:fc:51:72:c5:a4:46:e0:db:94:09:4d:14:
         eb:88:41:bb:82:63:e2:8d:c8:f1:a3:69:49:1b:89:12:d7:f8:
         c1:7e:cc:90:70:80:2e:9d:e7:69:7f:80:46:f9:af:a2:19:ba:
         02:40:1b:dc:b7:9f:ab:3e:06:b5:33:7b:61:57:8a:4a:b0:57:
         2b:77:50:13:11:78:5f:62:45:b9:9b:21:2c:28:9b:44:2b:ef:
         7f:e0:f4:18
-----BEGIN CERTIFICATE-----
MIIDujCCAqKgAwIBAgICEjowDQYJKoZIhvcNAQENBQAwbDELMAkGA1UEBhMCQ0Ex
CzAJBgNVBAgMAk9OMRAwDgYDVQQHDAdUb3JvbnRvMQ0wCwYDVQQKDARhY21lMQww
CgYDVQQLDANhcnQxITAfBgNVBAMMGGludGVybWVkaWF0ZV9jYUBhY21lLm9yZzAe
Fw0yMDAxMTcxMjE0MDFaFw0yNDAxMTcxMjE0MDFaMHwxCzAJBgNVBAYTAkNBMQsw
CQYDVQQIDAJPTjEQMA4GA1UEBwwHVG9yb250bzENMAsGA1UECgwEYWNtZTEMMAoG
A1UECwwDYXJ0MTEwLwYDVQQDDChhbGxvd2VkX2J5X2NhX3dpdGhfaW50ZXJtZWRp
YXRlQGFjbWUub3JnMIIBIjANBgkqhkiG9w0BAQEFAAOCAQ8AMIIBCgKCAQEAyexh
LlZwtLQyUmtixs1kh2XhcTuH++vdd5iORKpt3y0ieAqaVIe/IyjNnmT6LUDv4wk3
vhJlqj9O7y6F8RlCAHlRlaeEepu+ZOP4lqdceuxLTYkosixP4nf9JkiEB2Pb6XDc
qo50BSOJ2515IFqDvbuoHh7oOIrILhldRw/uDHqI1xViYHOwy6egwokKfjOJZ/OT
PNJrkPamba++nTgsrrGv8CMZPiyQoq13jtZA52VAVC9dZlZ3oXFHE9Ft2XD5FMC0
XV0yf6KvSUV7fETIOVNhDSXHHqCkfdAhYCJ/7FU2r4cw/CfFoTQqpyqxo53YGIjQ
flNJL+pvA9pUeQwm4wIDAQABo1YwVDA6BgNVHR8EMzAxMC+gLaArhilodHRwOi8v
bG9jYWxob3N0OjgxODYvaW50ZXJtZWRpYXRlX2NhLmNybDAJBgNVHRMEAjAAMAsG
A1UdDwQEAwIF4DANBgkqhkiG9w0BAQ0FAAOCAQEAF318wjIDeMV2hzdUOMYf8cYF
lkj78a3aQXZ70Mvue114naazdTKFN5HSWKqlJ6xxTBIBbBQZI1IJuRM9F02isFaV
OGanOfK4eFAqHRJjRh9e1BJL8ohyRNlDKdqAoBQO3dNp860FDrtaW/SqBlr1jH94
utNQ4GifEbAzPPlcIs1waLqMOZLjxIgfhXm1HJTheclWTiweQej9QA5hRtx0S/C/
befBNPpq/FFyxaRG4NuUCU0U64hBu4Jj4o3I8aNpSRuJEtf4wX7MkHCALp3naX+A
Rvmvohm6AkAb3Lefqz4GtTN7YVeKSrBXK3dQExF4X2JFuZshLCibRCvvf+D0GA==
-----END CERTIFICATE-----
