Certificate:
    Data:
        Version: 3 (0x2)
        Serial Number: 4665 (0x1239)
        Signature Algorithm: sha512WithRSAEncryption
        Issuer: C=CA, ST=Ontario, O=ACME, CN=MyRootCA
        Validity
            Not Before: Jan 17 12:14:01 2020 GMT
            Not After : Jan 17 12:14:01 2024 GMT
        Subject: C=CA, ST=ON, L=Toronto, O=acme, OU=art, CN=intermediate_ca@acme.org
        Subject Public Key Info:
            Public Key Algorithm: rsaEncryption
                RSA Public-Key: (2048 bit)
                Modulus:
                    00:cd:1b:03:cd:bb:56:19:11:47:00:bd:f2:60:d8:
                    31:34:9e:06:cf:9c:1e:59:27:c1:99:c0:73:b3:14:
                    90:09:c5:8b:3c:fa:27:5f:54:fb:0a:0c:49:1c:f4:
                    6f:7e:82:8b:c9:d8:a3:6b:a3:9b:0d:f4:4c:ec:95:
                    47:f1:55:d7:a3:e3:61:0f:dd:32:07:cf:d9:ed:01:
                    58:aa:4f:d8:be:0a:18:cd:08:f6:6c:ee:5b:20:9c:
                    fe:55:97:08:99:52:86:2c:d0:6e:5a:db:6d:14:17:
                    87:e4:e0:d9:ec:9d:22:7c:04:89:d4:5f:b4:fd:73:
                    9f:82:29:92:97:30:c7:9c:73:d1:a2:8b:0a:02:39:
                    02:7e:c2:c6:c7:05:1d:16:97:e7:40:54:8b:cb:33:
                    44:41:b0:44:5b:64:c6:21:8e:89:75:1d:c2:84:a0:
                    90:48:c6:9b:ab:36:b5:06:cc:c4:48:d6:64:c6:af:
                    f8:c1:40:ee:10:18:6a:20:ca:ca:d9:11:78:8f:56:
                    50:8c:04:01:28:a4:da:f4:d4:d1:50:03:47:3f:9b:
                    b5:5b:e6:25:9f:85:4d:2b:b6:ad:21:4d:97:d2:53:
                    00:bf:51:63:c2:4d:aa:49:04:81:ab:b5:97:c6:bf:
                    82:02:94:ef:04:b7:bd:43:50:26:cc:53:eb:ab:75:
                    d4:0b
                Exponent: 65537 (0x10001)
        X509v3 extensions:
            X509v3 CRL Distribution Points: 

                Full Name:
                  URI:http://localhost:8186/MyRootCA.crl

            X509v3 Subject Key Identifier: 
                FF:6A:19:05:FF:1A:9B:17:7C:72:5F:9F:8C:42:B0:15:DC:6F:D4:E2
            X509v3 Authority Key Identifier: 
                keyid:D8:34:F2:4C:A5:AC:01:A4:3B:54:66:AA:F7:DB:C3:C1:F2:BF:E6:CC

            X509v3 Basic Constraints: critical
                CA:TRUE
    Signature Algorithm: sha512WithRSAEncryption
         4a:7b:89:b1:f3:db:79:bf:c6:2d:6c:82:f3:3c:4e:33:ca:72:
         a8:5c:68:a8:f5:09:81:03:07:90:c1:dc:29:06:17:c4:f4:b7:
         cb:7b:65:2f:68:23:68:ce:b6:f6:96:2e:6d:84:35:6a:9f:e4:
         c2:46:50:81:df:e5:cc:fb:2e:73:6b:83:2d:41:9f:92:14:32:
         d5:52:60:32:13:02:3e:c3:35:0b:fa:58:c2:3b:4a:17:a5:87:
         c8:ca:ba:c6:11:94:9c:1a:d5:d9:23:22:62:0d:a6:19:b4:54:
         cb:0f:a4:a4:d0:24:a3:bc:3c:7d:af:e7:cb:45:22:ac:b8:f4:
         b7:f2:64:09:1a:27:b7:ab:1a:26:3b:f1:b2:8a:5f:36:21:a2:
         30:9d:ed:8a:3b:7a:2b:ab:97:99:aa:d0:7d:b6:85:46:11:d2:
         d7:5b:ba:64:6b:b1:27:85:55:10:be:44:bf:4b:80:75:ff:cf:
         7a:6b:65:86:4f:50:40:7c:38:e4:3a:3b:9d:1d:be:79:31:5e:
         b5:30:ae:b2:2c:bb:de:a0:ae:f1:90:d3:69:f9:d8:3a:82:d4:
         71:aa:92:0f:f1:33:60:2b:3c:76:e5:08:4c:e5:32:23:45:97:
         68:aa:11:92:88:48:02:bf:e2:59:8d:67:91:a8:8c:b0:3f:ed:
         15:cc:57:ee
-----BEGIN CERTIFICATE-----
MIIDszCCApugAwIBAgICEjkwDQYJKoZIhvcNAQENBQAwQTELMAkGA1UEBhMCQ0Ex
EDAOBgNVBAgMB09udGFyaW8xDTALBgNVBAoMBEFDTUUxETAPBgNVBAMMCE15Um9v
dENBMB4XDTIwMDExNzEyMTQwMVoXDTI0MDExNzEyMTQwMVowbDELMAkGA1UEBhMC
Q0ExCzAJBgNVBAgMAk9OMRAwDgYDVQQHDAdUb3JvbnRvMQ0wCwYDVQQKDARhY21l
MQwwCgYDVQQLDANhcnQxITAfBgNVBAMMGGludGVybWVkaWF0ZV9jYUBhY21lLm9y
ZzCCASIwDQYJKoZIhvcNAQEBBQADggEPADCCAQoCggEBAM0bA827VhkRRwC98mDY
MTSeBs+cHlknwZnAc7MUkAnFizz6J19U+woMSRz0b36Ci8nYo2ujmw30TOyVR/FV
16PjYQ/dMgfP2e0BWKpP2L4KGM0I9mzuWyCc/lWXCJlShizQblrbbRQXh+Tg2eyd
InwEidRftP1zn4Ipkpcwx5xz0aKLCgI5An7CxscFHRaX50BUi8szREGwRFtkxiGO
iXUdwoSgkEjGm6s2tQbMxEjWZMav+MFA7hAYaiDKytkReI9WUIwEASik2vTU0VAD
Rz+btVvmJZ+FTSu2rSFNl9JTAL9RY8JNqkkEgau1l8a/ggKU7wS3vUNQJsxT66t1
1AsCAwEAAaOBiTCBhjAzBgNVHR8ELDAqMCigJqAkhiJodHRwOi8vbG9jYWxob3N0
OjgxODYvTXlSb290Q0EuY3JsMB0GA1UdDgQWBBT/ahkF/xqbF3xyX5+MQrAV3G/U
4jAfBgNVHSMEGDAWgBTYNPJMpawBpDtUZqr328PB8r/mzDAPBgNVHRMBAf8EBTAD
AQH/MA0GCSqGSIb3DQEBDQUAA4IBAQBKe4mx89t5v8YtbILzPE4zynKoXGio9QmB
AweQwdwpBhfE9LfLe2UvaCNozrb2li5thDVqn+TCRlCB3+XM+y5za4MtQZ+SFDLV
UmAyEwI+wzUL+ljCO0oXpYfIyrrGEZScGtXZIyJiDaYZtFTLD6Sk0CSjvDx9r+fL
RSKsuPS38mQJGie3qxomO/Gyil82IaIwne2KO3orq5eZqtB9toVGEdLXW7pka7En
hVUQvkS/S4B1/896a2WGT1BAfDjkOjudHb55MV61MK6yLLveoK7xkNNp+dg6gtRx
qpIP8TNgKzx25QhM5TIjRZdoqhGSiEgCv+JZjWeRqIywP+0VzFfu
-----END CERTIFICATE-----
-----BEGIN CERTIFICATE-----
MIIDYzCCAkugAwIBAgIUAzgWkwkl4wOLx+GiJZVnG3I2cNEwDQYJKoZIhvcNAQEN
BQAwQTELMAkGA1UEBhMCQ0ExEDAOBgNVBAgMB09udGFyaW8xDTALBgNVBAoMBEFD
TUUxETAPBgNVBAMMCE15Um9vdENBMB4XDTIwMDExNzEyMTM0OVoXDTI0MDExNzEy
MTM0OVowQTELMAkGA1UEBhMCQ0ExEDAOBgNVBAgMB09udGFyaW8xDTALBgNVBAoM
BEFDTUUxETAPBgNVBAMMCE15Um9vdENBMIIBIjANBgkqhkiG9w0BAQEFAAOCAQ8A
MIIBCgKCAQEA+CXc5ld4yp+N6ns0HA8aPI2AUDPcbhs558F713/amq6KzueuVBJ4
UBMdFqGI2Ul2RbEJuy/qxYqTDqtPNMorzLgK47NrDnZ0cdE/DlavSyCQmNoE0Ksr
XBTbIk0uEKKObJSYiW+8ise6cc+5Q83woG5OzUj6E/uX/TFYsSbsaLaG74HY8ajI
bHDEPOnRlqWV/Z8ADvjpplxXuAXyhA7YYMA/WlXAp3knLFEZTJduVeH+U9gn3lif
9zjUxuaNBioTJcnHnbanc3z2q5CvTbzhlUjOuWJ28dJ+QHr60bw4EEwM+akavU+O
9GK2Dh2oqLAOJ/z11I5F6LX7NEOprpt0owIDAQABo1MwUTAdBgNVHQ4EFgQU2DTy
TKWsAaQ7VGaq99vDwfK/5swwHwYDVR0jBBgwFoAU2DTyTKWsAaQ7VGaq99vDwfK/
5swwDwYDVR0TAQH/BAUwAwEB/zANBgkqhkiG9w0BAQ0FAAOCAQEA8p51vGg8YT6y
Aiyeps/ggms5/vkuH3AdI2OqC1RbIIx2Duia1EiH+Vxw0I1B7jJ9tZOsZfJVLmcr
qlToReTTceGSRt22JvV7vpB/mn7y1z5Pz9Inw/eWTC32frzzLdayGv3/EhArsu+B
eW6EemnXN4UxRc4rkCcYqz3WJJ/NollBwzqhpmFqo0sArZ7CSkz9+2U6sayZsxA3
zT+4aj6vIp6Yv/USgX86VrdO1sBhJKlosEOlJqyorpjutv4fl4hR04/yU+Kw/sdG
9ZA5Q9zrV0ooZ+635K1Z4Xr2rCH/38ltUZnFWD7D0w/z+QhonxXdnwbudtedSybo
VPvWVRUaVA==
-----END CERTIFICATE-----
