Certificate:
    Data:
        Version: 3 (0x2)
        Serial Number: 4661 (0x1235)
        Signature Algorithm: sha512WithRSAEncryption
        Issuer: C=CA, ST=Ontario, O=ACME, CN=MyRootCA
        Validity
            Not Before: Jan 17 12:13:52 2020 GMT
            Not After : Jan 17 12:13:52 2024 GMT
        Subject: C=CA, ST=ON, L=Toronto, O=acme, OU=art, CN=app2@acme.org
        Subject Public Key Info:
            Public Key Algorithm: rsaEncryption
                RSA Public-Key: (2048 bit)
                Modulus:
                    00:b7:16:85:6e:de:f5:77:42:63:ec:72:b8:e3:a9:
                    2f:b3:34:1a:68:5b:39:1b:74:8d:52:08:42:2f:a7:
                    30:84:10:96:7c:83:13:52:f3:ef:47:23:8e:25:4f:
                    32:2f:b8:1d:55:ec:fb:fb:95:75:9a:b5:04:83:67:
                    7b:58:0a:29:71:c7:2d:ee:9c:44:02:90:62:dc:1e:
                    e4:d4:9e:c9:ac:3b:3e:74:cb:97:9f:c0:1b:ff:75:
                    36:9b:4c:db:da:3f:eb:40:6e:f8:1c:a9:01:54:02:
                    f9:2f:1c:59:51:61:84:51:68:b0:64:2c:11:0c:2b:
                    08:22:9f:c1:00:06:36:15:02:bb:ad:9c:3b:b8:93:
                    15:59:cd:d7:62:80:9f:20:a4:a2:7d:46:a5:00:98:
                    16:20:48:49:be:08:d7:b2:9d:cf:40:3b:e2:a0:2d:
                    be:bb:3d:e1:2b:cc:e4:f8:29:f0:a8:5b:cc:18:35:
                    f7:13:a8:2e:16:32:65:35:94:73:7e:34:a3:97:65:
                    53:42:41:85:73:eb:36:8f:88:fc:4e:2d:79:ac:12:
                    df:60:fc:49:d9:71:3f:88:f3:b4:21:66:4e:34:91:
                    6e:ca:5f:93:81:c6:f6:b8:b0:55:fd:73:bb:3f:4b:
                    d3:2a:a9:d9:57:88:d1:4b:14:10:1e:d3:eb:fb:0c:
                    b9:d3
                Exponent: 65537 (0x10001)
        X509v3 extensions:
            X509v3 Basic Constraints: 
                CA:FALSE
            X509v3 Key Usage: 
                Digital Signature, Non Repudiation, Key Encipherment
    Signature Algorithm: sha512WithRSAEncryption
         f0:b6:a8:e1:86:fd:b9:2c:1b:72:d1:0f:8c:10:97:d0:15:e5:
         cd:aa:4a:c0:71:fd:3d:48:fc:ca:d9:1e:53:06:c2:7f:a6:f8:
         57:02:c3:7c:a9:1b:7c:17:d6:2e:48:50:8a:6b:ff:90:2e:19:
         03:c7:b7:31:27:04:ce:8c:e0:2d:43:6d:ca:d6:bd:b3:c9:ea:
         66:6e:48:d8:ca:1c:ca:ee:2c:41:58:40:08:55:0e:4c:38:4d:
         f6:16:14:fd:78:30:c6:73:88:cd:ba:ce:5d:25:df:cf:79:45:
         d7:b8:51:b9:c6:9d:db:8a:82:35:ac:09:ee:2e:73:7e:86:8d:
         23:d0:39:16:40:5e:10:4b:ba:d9:63:18:b3:40:43:19:35:49:
         5d:7b:55:0a:9e:3a:f3:ae:33:0e:9b:4f:d1:07:16:33:32:d7:
         4f:c2:43:35:31:4d:e6:39:f2:8a:12:fa:6b:ab:4b:dc:aa:18:
         cb:db:df:b5:9f:58:ff:54:bc:de:af:c9:55:04:6a:60:47:68:
         4d:18:15:51:2b:87:c3:aa:d9:86:f0:2d:42:ea:23:f8:30:59:
         c7:4f:5d:84:e9:b0:5c:35:a6:63:c4:e0:66:c7:d8:fa:2c:17:
         50:af:59:a9:38:9a:d8:3b:53:e6:3e:ea:bd:c0:51:d3:e3:fd:
         9d:3b:94:51
-----BEGIN CERTIFICATE-----
MIIDODCCAiCgAwIBAgICEjUwDQYJKoZIhvcNAQENBQAwQTELMAkGA1UEBhMCQ0Ex
EDAOBgNVBAgMB09udGFyaW8xDTALBgNVBAoMBEFDTUUxETAPBgNVBAMMCE15Um9v
dENBMB4XDTIwMDExNzEyMTM1MloXDTI0MDExNzEyMTM1MlowYTELMAkGA1UEBhMC
Q0ExCzAJBgNVBAgMAk9OMRAwDgYDVQQHDAdUb3JvbnRvMQ0wCwYDVQQKDARhY21l
MQwwCgYDVQQLDANhcnQxFjAUBgNVBAMMDWFwcDJAYWNtZS5vcmcwggEiMA0GCSqG
SIb3DQEBAQUAA4IBDwAwggEKAoIBAQC3FoVu3vV3QmPscrjjqS+zNBpoWzkbdI1S
CEIvpzCEEJZ8gxNS8+9HI44lTzIvuB1V7Pv7lXWatQSDZ3tYCilxxy3unEQCkGLc
HuTUnsmsOz50y5efwBv/dTabTNvaP+tAbvgcqQFUAvkvHFlRYYRRaLBkLBEMKwgi
n8EABjYVArutnDu4kxVZzddigJ8gpKJ9RqUAmBYgSEm+CNeync9AO+KgLb67PeEr
zOT4KfCoW8wYNfcTqC4WMmU1lHN+NKOXZVNCQYVz6zaPiPxOLXmsEt9g/EnZcT+I
87QhZk40kW7KX5OBxva4sFX9c7s/S9MqqdlXiNFLFBAe0+v7DLnTAgMBAAGjGjAY
MAkGA1UdEwQCMAAwCwYDVR0PBAQDAgXgMA0GCSqGSIb3DQEBDQUAA4IBAQDwtqjh
hv25LBty0Q+MEJfQFeXNqkrAcf09SPzK2R5TBsJ/pvhXAsN8qRt8F9YuSFCKa/+Q
LhkDx7cxJwTOjOAtQ23K1r2zyepmbkjYyhzK7ixBWEAIVQ5MOE32FhT9eDDGc4jN
us5dJd/PeUXXuFG5xp3bioI1rAnuLnN+ho0j0DkWQF4QS7rZYxizQEMZNUlde1UK
njrzrjMOm0/RBxYzMtdPwkM1MU3mOfKKEvprq0vcqhjL29+1n1j/VLzer8lVBGpg
R2hNGBVRK4fDqtmG8C1C6iP4MFnHT12E6bBcNaZjxOBmx9j6LBdQr1mpOJrYO1Pm
Puq9wFHT4/2dO5RR
-----END CERTIFICATE-----
