Certificate:
    Data:
        Version: 3 (0x2)
        Serial Number: 4668 (0x123c)
        Signature Algorithm: sha512WithRSAEncryption
        Issuer: C=CA, ST=Ontario, O=ACME, CN=MyRootCA
        Validity
            Not Before: Jan 17 12:14:02 2020 GMT
            Not After : Jan 17 12:14:02 2024 GMT
        Subject: C=CA, ST=ON, L=Toronto, O=acme, OU=art, CN=revoked_by_ca_invalid_crl_path@acme.org
        Subject Public Key Info:
            Public Key Algorithm: rsaEncryption
                RSA Public-Key: (2048 bit)
                Modulus:
                    00:cc:e3:11:32:ee:d9:ba:67:5b:0b:e2:52:4b:9c:
                    e7:54:d7:e4:c7:a9:92:7e:6a:39:e0:bb:d3:cc:9f:
                    6f:38:73:96:c5:62:bf:bc:8d:69:e5:e8:67:3f:18:
                    d8:aa:ab:67:93:cb:c1:71:ac:7d:1e:7e:40:a7:d6:
                    0a:8a:d2:17:7e:3b:be:d0:0e:1b:54:7c:be:0f:de:
                    46:9b:4c:5a:64:de:87:08:45:b9:4f:32:df:26:6c:
                    42:66:06:bd:61:cb:95:ae:a7:94:ee:4f:61:ff:da:
                    18:b5:4a:41:9a:c5:c4:bd:2b:ae:8f:9d:13:82:04:
                    df:23:31:4a:5d:62:2c:0f:83:87:18:4a:7c:ce:12:
                    bc:02:67:b4:1e:d9:9b:4c:9a:33:ab:0c:34:eb:dc:
                    8e:36:0a:54:ac:c1:88:84:26:15:9e:a5:08:0b:e2:
                    95:ef:3b:71:29:d9:c7:39:79:05:ef:4e:dd:52:ea:
                    42:05:b3:7b:2b:b4:ee:3e:da:4f:78:a7:e3:39:da:
                    6e:56:2e:74:52:27:7f:e5:e9:c3:11:79:c9:5f:6f:
                    ae:58:31:d0:d1:89:b3:01:09:01:5d:44:53:6b:21:
                    af:fc:07:e6:68:9e:76:ab:c9:56:b0:20:5d:36:fe:
                    e0:06:8c:bb:70:6c:e3:3b:92:a0:5b:0d:e9:ce:e4:
                    fb:ff
                Exponent: 65537 (0x10001)
        X509v3 extensions:
            X509v3 CRL Distribution Points: 

                Full Name:
                  URI:http://localhost:8186/not/a/crl

            X509v3 Basic Constraints: 
                CA:FALSE
            X509v3 Key Usage: 
                Digital Signature, Non Repudiation, Key Encipherment
    Signature Algorithm: sha512WithRSAEncryption
         70:bd:f9:c8:9e:b5:40:c4:cd:af:33:9a:35:10:25:ef:2d:00:
         c1:e3:7a:b3:54:f3:e7:86:b5:a7:3a:7c:4e:c3:fe:c3:b3:f6:
         e9:e1:4b:48:27:40:dc:36:e1:18:cc:79:93:44:c8:96:78:1c:
         c2:e3:3c:58:a3:3e:4c:d7:68:7e:e3:83:c4:40:f1:2a:d1:17:
         a5:89:5f:5d:72:b9:3f:9e:75:7a:a2:d9:73:82:09:4d:45:40:
         84:ed:e7:9a:15:81:e2:3e:43:eb:c4:f8:ff:40:a4:b9:1c:d0:
         3f:e9:c4:17:26:74:10:86:52:c5:34:b8:a7:d4:1c:b5:53:ac:
         af:35:35:61:c7:7c:f0:ce:bb:4e:24:49:01:3b:88:57:70:73:
         ad:19:52:ee:b0:57:5e:01:ac:18:1a:ab:73:d5:12:c1:55:0c:
         7b:42:33:ad:5c:a9:5a:75:61:dc:65:08:b0:b5:ab:d0:56:2f:
         1b:fa:88:2f:53:2f:04:bb:e3:d6:42:73:0a:03:a3:28:79:a9:
         ba:45:4e:ac:65:9e:0f:6a:f2:b7:9a:3a:df:fd:07:cb:4b:78:
         6a:32:91:59:d4:f6:ea:aa:0d:71:da:21:14:cf:b9:73:bd:c6:
         f2:b3:8b:b2:30:7a:83:3a:7f:09:d3:11:ef:13:dd:da:1d:b9:
         01:11:fe:ad
-----BEGIN CERTIFICATE-----
MIIDhDCCAmygAwIBAgICEjwwDQYJKoZIhvcNAQENBQAwQTELMAkGA1UEBhMCQ0Ex
EDAOBgNVBAgMB09udGFyaW8xDTALBgNVBAoMBEFDTUUxETAPBgNVBAMMCE15Um9v
dENBMB4XDTIwMDExNzEyMTQwMloXDTI0MDExNzEyMTQwMlowezELMAkGA1UEBhMC
Q0ExCzAJBgNVBAgMAk9OMRAwDgYDVQQHDAdUb3JvbnRvMQ0wCwYDVQQKDARhY21l
MQwwCgYDVQQLDANhcnQxMDAuBgNVBAMMJ3Jldm9rZWRfYnlfY2FfaW52YWxpZF9j
cmxfcGF0aEBhY21lLm9yZzCCASIwDQYJKoZIhvcNAQEBBQADggEPADCCAQoCggEB
AMzjETLu2bpnWwviUkuc51TX5Mepkn5qOeC708yfbzhzlsViv7yNaeXoZz8Y2Kqr
Z5PLwXGsfR5+QKfWCorSF347vtAOG1R8vg/eRptMWmTehwhFuU8y3yZsQmYGvWHL
la6nlO5PYf/aGLVKQZrFxL0rro+dE4IE3yMxSl1iLA+DhxhKfM4SvAJntB7Zm0ya
M6sMNOvcjjYKVKzBiIQmFZ6lCAvile87cSnZxzl5Be9O3VLqQgWzeyu07j7aT3in
4znablYudFInf+XpwxF5yV9vrlgx0NGJswEJAV1EU2shr/wH5miedqvJVrAgXTb+
4AaMu3Bs4zuSoFsN6c7k+/8CAwEAAaNMMEowMAYDVR0fBCkwJzAloCOgIYYfaHR0
cDovL2xvY2FsaG9zdDo4MTg2L25vdC9hL2NybDAJBgNVHRMEAjAAMAsGA1UdDwQE
AwIF4DANBgkqhkiG9w0BAQ0FAAOCAQEAcL35yJ61QMTNrzOaNRAl7y0AweN6s1Tz
54a1pzp8TsP+w7P26eFLSCdA3DbhGMx5k0TIlngcwuM8WKM+TNdofuODxEDxKtEX
pYlfXXK5P551eqLZc4IJTUVAhO3nmhWB4j5D68T4/0CkuRzQP+nEFyZ0EIZSxTS4
p9QctVOsrzU1Ycd88M67TiRJATuIV3BzrRlS7rBXXgGsGBqrc9USwVUMe0IzrVyp
WnVh3GUIsLWr0FYvG/qIL1MvBLvj1kJzCgOjKHmpukVOrGWeD2ryt5o63/0Hy0t4
ajKRWdT26qoNcdohFM+5c73G8rOLsjB6gzp/CdMR7xPd2h25ARH+rQ==
-----END CERTIFICATE-----
