Certificate:
    Data:
        Version: 3 (0x2)
        Serial Number: 4667 (0x123b)
        Signature Algorithm: sha512WithRSAEncryption
        Issuer: C=CA, ST=Ontario, O=ACME, CN=MyRootCA
        Validity
            Not Before: Jan 17 12:14:02 2020 GMT
            Not After : Jan 17 12:14:02 2024 GMT
        Subject: C=CA, ST=ON, L=Toronto, O=acme, OU=art, CN=revoked_by_ca_empty_crl@acme.org
        Subject Public Key Info:
            Public Key Algorithm: rsaEncryption
                RSA Public-Key: (2048 bit)
                Modulus:
                    00:cd:03:6c:76:ba:58:04:33:52:0c:45:ba:80:87:
                    be:ce:3d:94:76:45:79:29:b1:15:15:c9:95:e0:5e:
                    03:34:a5:5f:ab:b6:8a:03:57:b4:60:2d:fe:2e:27:
                    c1:51:7f:bd:25:fe:0d:d3:48:72:0a:09:ed:ef:df:
                    18:98:17:e1:bf:44:07:6f:f5:72:98:73:0a:ca:7c:
                    7f:a6:8e:1b:e1:f5:e9:cc:d5:37:96:1e:8b:f1:8b:
                    cb:4f:3b:ad:e5:b9:73:b2:6f:2c:e2:70:c9:a7:28:
                    ee:d2:4e:79:02:ef:11:f0:8d:77:41:46:d4:98:72:
                    cd:73:66:a4:f2:ea:81:42:b5:e1:95:0c:d3:23:e7:
                    dc:0e:2c:02:cf:bc:8f:dd:53:ea:2c:08:1d:8b:07:
                    52:47:25:dd:9d:99:5c:56:86:2d:38:2a:2f:15:57:
                    dd:e2:c0:79:a5:aa:e6:3f:c3:b9:78:97:cf:47:fa:
                    c6:9f:55:73:42:cb:27:17:35:b3:5c:91:bd:f9:f0:
                    00:a6:d2:5b:eb:34:2e:43:6a:ca:38:f6:14:32:4c:
                    c8:35:92:b7:4c:f7:da:86:70:55:0c:ca:67:82:5e:
                    31:7f:e1:d2:76:22:d8:92:03:d6:47:df:43:55:33:
                    29:e3:44:d0:2e:45:b4:e5:fb:78:95:53:3e:21:33:
                    01:3d
                Exponent: 65537 (0x10001)
        X509v3 extensions:
            X509v3 CRL Distribution Points: 

                Full Name:
                  URI:http://localhost:8186/MyRootCA.empty.crl

            X509v3 Basic Constraints: 
                CA:FALSE
            X509v3 Key Usage: 
                Digital Signature, Non Repudiation, Key Encipherment
    Signature Algorithm: sha512WithRSAEncryption
         bf:be:61:4f:7a:a3:ff:9f:76:1a:d5:80:57:e8:29:d5:7b:31:
         f2:15:de:11:a2:f4:67:97:05:70:52:84:0c:6d:aa:bc:b4:f1:
         ed:92:f7:e3:ca:0f:4e:19:c4:82:38:e2:f1:30:74:42:8e:c8:
         7e:9f:b5:df:59:8b:e7:70:84:4d:fc:6b:4e:25:33:65:ac:f6:
         da:3e:a4:32:fd:cb:f7:dc:f3:5a:3f:e3:8b:85:8d:9b:5a:e1:
         f4:17:3c:d5:67:13:25:78:d0:3f:9d:cc:b8:1f:3c:9c:55:11:
         12:1f:13:2f:55:4b:3d:e0:cf:bf:10:ce:de:04:a3:b1:60:26:
         3e:41:bf:8f:3b:86:ef:7f:69:4b:5b:2e:45:a2:5a:b5:34:2e:
         ff:28:01:81:15:03:53:86:31:77:ac:41:f5:b3:c1:54:e9:ab:
         cf:d3:3f:36:94:4e:ed:07:39:4e:ad:fb:0c:26:87:62:30:51:
         da:70:8a:f2:9b:9f:9f:a4:25:d8:df:90:27:ab:0e:b6:81:fc:
         a1:24:16:4d:aa:91:d7:c9:0b:f0:49:1a:80:7c:86:7f:0f:4e:
         32:59:86:41:32:92:00:b1:f0:32:50:84:72:35:f3:b2:7f:c1:
         2a:69:6c:9e:74:43:8e:d0:15:b3:0d:ed:34:b9:14:fe:24:17:
         f7:4c:e0:0f
-----BEGIN CERTIFICATE-----
MIIDhjCCAm6gAwIBAgICEjswDQYJKoZIhvcNAQENBQAwQTELMAkGA1UEBhMCQ0Ex
EDAOBgNVBAgMB09udGFyaW8xDTALBgNVBAoMBEFDTUUxETAPBgNVBAMMCE15Um9v
dENBMB4XDTIwMDExNzEyMTQwMloXDTI0MDExNzEyMTQwMlowdDELMAkGA1UEBhMC
Q0ExCzAJBgNVBAgMAk9OMRAwDgYDVQQHDAdUb3JvbnRvMQ0wCwYDVQQKDARhY21l
MQwwCgYDVQQLDANhcnQxKTAnBgNVBAMMIHJldm9rZWRfYnlfY2FfZW1wdHlfY3Js
QGFjbWUub3JnMIIBIjANBgkqhkiG9w0BAQEFAAOCAQ8AMIIBCgKCAQEAzQNsdrpY
BDNSDEW6gIe+zj2UdkV5KbEVFcmV4F4DNKVfq7aKA1e0YC3+LifBUX+9Jf4N00hy
Cgnt798YmBfhv0QHb/VymHMKynx/po4b4fXpzNU3lh6L8YvLTzut5blzsm8s4nDJ
pyju0k55Au8R8I13QUbUmHLNc2ak8uqBQrXhlQzTI+fcDiwCz7yP3VPqLAgdiwdS
RyXdnZlcVoYtOCovFVfd4sB5parmP8O5eJfPR/rGn1VzQssnFzWzXJG9+fAAptJb
6zQuQ2rKOPYUMkzINZK3TPfahnBVDMpngl4xf+HSdiLYkgPWR99DVTMp40TQLkW0
5ft4lVM+ITMBPQIDAQABo1UwUzA5BgNVHR8EMjAwMC6gLKAqhihodHRwOi8vbG9j
YWxob3N0OjgxODYvTXlSb290Q0EuZW1wdHkuY3JsMAkGA1UdEwQCMAAwCwYDVR0P
BAQDAgXgMA0GCSqGSIb3DQEBDQUAA4IBAQC/vmFPeqP/n3Ya1YBX6CnVezHyFd4R
ovRnlwVwUoQMbaq8tPHtkvfjyg9OGcSCOOLxMHRCjsh+n7XfWYvncIRN/GtOJTNl
rPbaPqQy/cv33PNaP+OLhY2bWuH0FzzVZxMleNA/ncy4HzycVRESHxMvVUs94M+/
EM7eBKOxYCY+Qb+PO4bvf2lLWy5Folq1NC7/KAGBFQNThjF3rEH1s8FU6avP0z82
lE7tBzlOrfsMJodiMFHacIrym5+fpCXY35Anqw62gfyhJBZNqpHXyQvwSRqAfIZ/
D04yWYZBMpIAsfAyUIRyNfOyf8EqaWyedEOO0BWzDe00uRT+JBf3TOAP
-----END CERTIFICATE-----
