Certificate:
    Data:
        Version: 3 (0x2)
        Serial Number: 4664 (0x1238)
        Signature Algorithm: sha512WithRSAEncryption
        Issuer: C=CA, ST=Ontario, O=ACME, CN=MyRootCA
        Validity
            Not Before: Jan 17 12:14:00 2020 GMT
            Not After : Jan 17 12:14:00 2024 GMT
        Subject: C=CA, ST=ON, L=Toronto, O=acme, OU=art, CN=revoked_by_ca@acme.org
        Subject Public Key Info:
            Public Key Algorithm: rsaEncryption
                RSA Public-Key: (2048 bit)
                Modulus:
                    00:ab:54:29:44:85:72:57:4f:8d:9f:60:77:5c:77:
                    b0:45:bd:34:7a:e5:37:9f:0f:26:ac:e1:68:1a:b3:
                    86:bf:55:48:82:ad:31:df:ed:89:a9:7e:25:b8:4d:
                    5c:95:c1:4a:9e:b2:a3:51:57:e8:dd:18:75:e5:db:
                    f0:aa:ea:eb:5f:0f:e0:09:e2:7c:a6:1c:5c:e5:db:
                    2c:c1:f2:d7:40:21:f7:fa:ef:e0:3e:f5:3d:10:52:
                    ec:b7:cd:9a:d8:3d:36:9a:3f:cd:1a:1f:e7:de:09:
                    c3:8f:08:4f:c1:c4:cb:d3:65:81:c4:e3:28:ed:f4:
                    a9:43:f2:c6:84:d9:16:22:65:55:17:e3:8b:7a:45:
                    9d:5f:7d:e5:87:d6:a5:fb:fe:0f:86:c0:d4:e0:9b:
                    2c:3a:99:df:4d:42:df:30:38:56:2d:f3:e5:8b:0f:
                    fc:99:e3:1f:62:cb:85:78:a3:40:43:d6:42:3b:bc:
                    e8:6c:45:19:3d:ca:43:86:1a:4b:ae:e9:3b:51:b0:
                    0d:0a:bb:de:26:34:b3:cf:dc:fc:99:c8:7e:42:7d:
                    2c:67:ea:2c:7d:2e:bf:ff:7f:21:9a:17:f1:87:1d:
                    aa:d6:a4:06:bb:c1:65:ac:7d:7a:51:fd:3f:d0:ac:
                    9b:85:17:51:5b:99:16:b8:c7:72:00:2d:0b:54:78:
                    16:5b
                Exponent: 65537 (0x10001)
        X509v3 extensions:
            X509v3 CRL Distribution Points: 

                Full Name:
                  URI:http://localhost:8186/MyRootCA.crl

            X509v3 Basic Constraints: 
                CA:FALSE
            X509v3 Key Usage: 
                Digital Signature, Non Repudiation, Key Encipherment
    Signature Algorithm: sha512WithRSAEncryption
         3a:d1:40:59:30:54:80:6a:b6:a9:76:f3:d1:05:c9:a1:d7:b0:
         ff:70:48:65:1d:1c:e5:82:b9:c5:62:78:eb:7a:0f:77:2d:26:
         8d:a7:16:34:a5:57:4e:da:51:b5:3e:65:a3:db:a4:ba:43:70:
         93:d4:d5:82:e4:c8:59:f0:f9:2c:7f:d6:d9:87:b8:5e:a9:4c:
         a5:cc:c3:ac:87:c8:3e:46:7e:6d:40:c1:bf:9f:03:68:ea:e1:
         97:30:43:bf:d7:a4:1a:58:e2:72:cf:0d:6f:31:1b:4a:72:4d:
         42:6d:7b:21:42:23:c0:7a:50:14:b9:f9:a5:95:53:77:c1:89:
         ff:3e:a0:1a:b2:88:69:13:93:c8:14:c4:c5:24:47:a0:9e:43:
         70:9d:ac:0e:7f:a6:b5:45:47:35:f9:e9:6d:32:15:54:26:81:
         84:ae:d8:27:c9:f3:65:64:7a:72:14:02:9f:8a:73:cf:04:c0:
         53:a8:01:56:a6:a6:b8:fe:06:b1:71:c0:cc:64:07:d5:33:a8:
         69:01:5e:06:b8:24:ec:1e:c4:9e:58:45:60:2b:70:d4:db:7a:
         8c:42:21:e6:e6:33:c9:66:35:6c:06:ad:0f:47:74:24:cb:65:
         af:e1:a6:d0:b3:06:4a:97:5f:b2:83:cf:ac:0d:81:c2:07:7a:
         06:c1:45:90
-----BEGIN CERTIFICATE-----
MIIDdjCCAl6gAwIBAgICEjgwDQYJKoZIhvcNAQENBQAwQTELMAkGA1UEBhMCQ0Ex
EDAOBgNVBAgMB09udGFyaW8xDTALBgNVBAoMBEFDTUUxETAPBgNVBAMMCE15Um9v
dENBMB4XDTIwMDExNzEyMTQwMFoXDTI0MDExNzEyMTQwMFowajELMAkGA1UEBhMC
Q0ExCzAJBgNVBAgMAk9OMRAwDgYDVQQHDAdUb3JvbnRvMQ0wCwYDVQQKDARhY21l
MQwwCgYDVQQLDANhcnQxHzAdBgNVBAMMFnJldm9rZWRfYnlfY2FAYWNtZS5vcmcw
ggEiMA0GCSqGSIb3DQEBAQUAA4IBDwAwggEKAoIBAQCrVClEhXJXT42fYHdcd7BF
vTR65TefDyas4Wgas4a/VUiCrTHf7YmpfiW4TVyVwUqesqNRV+jdGHXl2/Cq6utf
D+AJ4nymHFzl2yzB8tdAIff67+A+9T0QUuy3zZrYPTaaP80aH+feCcOPCE/BxMvT
ZYHE4yjt9KlD8saE2RYiZVUX44t6RZ1ffeWH1qX7/g+GwNTgmyw6md9NQt8wOFYt
8+WLD/yZ4x9iy4V4o0BD1kI7vOhsRRk9ykOGGkuu6TtRsA0Ku94mNLPP3PyZyH5C
fSxn6ix9Lr//fyGaF/GHHarWpAa7wWWsfXpR/T/QrJuFF1FbmRa4x3IALQtUeBZb
AgMBAAGjTzBNMDMGA1UdHwQsMCowKKAmoCSGImh0dHA6Ly9sb2NhbGhvc3Q6ODE4
Ni9NeVJvb3RDQS5jcmwwCQYDVR0TBAIwADALBgNVHQ8EBAMCBeAwDQYJKoZIhvcN
AQENBQADggEBADrRQFkwVIBqtql289EFyaHXsP9wSGUdHOWCucVieOt6D3ctJo2n
FjSlV07aUbU+ZaPbpLpDcJPU1YLkyFnw+Sx/1tmHuF6pTKXMw6yHyD5Gfm1Awb+f
A2jq4ZcwQ7/XpBpY4nLPDW8xG0pyTUJteyFCI8B6UBS5+aWVU3fBif8+oBqyiGkT
k8gUxMUkR6CeQ3CdrA5/prVFRzX56W0yFVQmgYSu2CfJ82VkenIUAp+Kc88EwFOo
AVamprj+BrFxwMxkB9UzqGkBXga4JOwexJ5YRWArcNTbeoxCIebmM8lmNWwGrQ9H
dCTLZa/hptCzBkqXX7KDz6wNgcIHegbBRZA=
-----END CERTIFICATE-----
